target datalayout = "e-m:e-p270:32:32-p271:32:32-p272:64:64-i64:64-i128:128-f80:128-n8:16:32:64-S128"
target triple = "x86_64-pc-linux-gnu"

%struct.t_interaction_function = type { ptr, ptr, i32, i32, i32, i32 }
%"class.std::vector" = type { %"struct.std::_Vector_base" }
%"struct.std::_Vector_base" = type { %"struct.std::_Vector_base<int, std::allocator<int>>::_Vector_impl" }
%"struct.std::_Vector_base<int, std::allocator<int>>::_Vector_impl" = type { %"struct.std::_Vector_base<int, std::allocator<int>>::_Vector_impl_data" }
%"struct.std::_Vector_base<int, std::allocator<int>>::_Vector_impl_data" = type { ptr, ptr, ptr }
%"struct.std::array" = type { [95 x %struct.InteractionList] }
%struct.InteractionList = type { %"class.std::vector" }
%class.IListRange = type { %class.IListIterator, %class.IListIterator }
%class.IListIterator = type { ptr, i64 }
%class.IListProxy = type { ptr }

@interaction_function = external global [95 x %struct.t_interaction_function], align 16

; Function Attrs: mustprogress nounwind uwtable
define linkonce_odr noundef i64 @_ZNKSt6vectorIiSaIiEE4sizeEv(ptr noundef nonnull align 8 dereferenceable(24) %0) #0 comdat align 2 {
  %2 = alloca ptr, align 8
  store ptr %0, ptr %2, align 8, !tbaa !125
  %3 = load ptr, ptr %2, align 8
  %4 = getelementptr inbounds nuw %"struct.std::_Vector_base", ptr %3, i32 0, i32 0
  %5 = getelementptr inbounds nuw %"struct.std::_Vector_base<int, std::allocator<int>>::_Vector_impl_data", ptr %4, i32 0, i32 1
  %6 = load ptr, ptr %5, align 8, !tbaa !127
  %7 = getelementptr inbounds nuw %"struct.std::_Vector_base", ptr %3, i32 0, i32 0
  %8 = getelementptr inbounds nuw %"struct.std::_Vector_base<int, std::allocator<int>>::_Vector_impl_data", ptr %7, i32 0, i32 0
  %9 = load ptr, ptr %8, align 8, !tbaa !128
  %10 = ptrtoint ptr %6 to i64
  %11 = ptrtoint ptr %9 to i64
  %12 = sub i64 %10, %11
  %13 = sdiv exact i64 %12, 4
  ret i64 %13
}

; Function Attrs: mustprogress nounwind uwtable
define linkonce_odr noundef nonnull align 8 dereferenceable(24) ptr @_ZNSt14__array_traitsI15InteractionListLm95EE6_S_refERA95_KS0_m(ptr noundef nonnull align 8 dereferenceable(2280) %0, i64 noundef %1) #0 comdat align 2 {
  %3 = alloca ptr, align 8
  %4 = alloca i64, align 8
  store ptr %0, ptr %3, align 8, !tbaa !116
  store i64 %1, ptr %4, align 8, !tbaa !102
  %5 = load ptr, ptr %3, align 8, !tbaa !116
  %6 = load i64, ptr %4, align 8, !tbaa !102
  %7 = getelementptr inbounds nuw [95 x %struct.InteractionList], ptr %5, i64 0, i64 %6
  ret ptr %7
}

; Function Attrs: mustprogress nounwind uwtable
define linkonce_odr void @_ZN10IListProxyC2EPK13IListIterator(ptr noundef nonnull align 8 dereferenceable(8) %0, ptr noundef %1) unnamed_addr #0 comdat align 2 {
  %3 = alloca ptr, align 8
  %4 = alloca ptr, align 8
  store ptr %0, ptr %3, align 8, !tbaa !121
  store ptr %1, ptr %4, align 8, !tbaa !113
  %5 = load ptr, ptr %3, align 8
  %6 = getelementptr inbounds nuw %class.IListProxy, ptr %5, i32 0, i32 0
  %7 = load ptr, ptr %4, align 8, !tbaa !113
  store ptr %7, ptr %6, align 8, !tbaa !123
  ret void
}

; Function Attrs: inlinehint mustprogress nounwind uwtable
define internal noundef i32 @_ZL4NRALi(i32 noundef %0) #2 {
  %2 = alloca i32, align 4
  store i32 %0, ptr %2, align 4, !tbaa !9
  %3 = load i32, ptr %2, align 4, !tbaa !9
  %4 = sext i32 %3 to i64
  %5 = getelementptr inbounds [95 x %struct.t_interaction_function], ptr @interaction_function, i64 0, i64 %4
  %6 = getelementptr inbounds nuw %struct.t_interaction_function, ptr %5, i32 0, i32 2
  %7 = load i32, ptr %6, align 16, !tbaa !118
  ret i32 %7
}

; Function Attrs: mustprogress nounwind uwtable
define linkonce_odr noundef i32 @_ZNK15InteractionList4sizeEv(ptr noundef nonnull align 8 dereferenceable(24) %0) #0 comdat align 2 {
  %2 = alloca ptr, align 8
  store ptr %0, ptr %2, align 8, !tbaa !116
  %3 = load ptr, ptr %2, align 8
  %4 = getelementptr inbounds nuw %struct.InteractionList, ptr %3, i32 0, i32 0
  %5 = call noundef i64 @_ZNKSt6vectorIiSaIiEE4sizeEv(ptr noundef nonnull align 8 dereferenceable(24) %4) #16
  %6 = trunc i64 %5 to i32
  ret i32 %6
}

; Function Attrs: mustprogress nounwind uwtable
define linkonce_odr noundef nonnull align 8 dereferenceable(24) ptr @_ZNKSt5arrayI15InteractionListLm95EEixEm(ptr noundef nonnull align 8 dereferenceable(2280) %0, i64 noundef %1) #0 comdat align 2 {
  %3 = alloca ptr, align 8
  %4 = alloca i64, align 8
  store ptr %0, ptr %3, align 8, !tbaa !115
  store i64 %1, ptr %4, align 8, !tbaa !102
  %5 = load ptr, ptr %3, align 8
  %6 = getelementptr inbounds nuw %"struct.std::array", ptr %5, i32 0, i32 0
  %7 = load i64, ptr %4, align 8, !tbaa !102
  %8 = call noundef nonnull align 8 dereferenceable(24) ptr @_ZNSt14__array_traitsI15InteractionListLm95EE6_S_refERA95_KS0_m(ptr noundef nonnull align 8 dereferenceable(2280) %6, i64 noundef %7) #16
  ret ptr %8
}

; Function Attrs: mustprogress uwtable
define linkonce_odr ptr @_ZNK13IListIteratordeEv(ptr noundef nonnull align 8 dereferenceable(16) %0) #3 comdat align 2 {
  %2 = alloca %class.IListProxy, align 8
  %3 = alloca ptr, align 8
  store ptr %0, ptr %3, align 8, !tbaa !113
  %4 = load ptr, ptr %3, align 8
  call void @_ZN10IListProxyC2EPK13IListIterator(ptr noundef nonnull align 8 dereferenceable(8) %2, ptr noundef %4)
  %5 = getelementptr inbounds nuw %class.IListProxy, ptr %2, i32 0, i32 0
  %6 = load ptr, ptr %5, align 8
  ret ptr %6
}

; Function Attrs: mustprogress uwtable
define linkonce_odr noundef zeroext i1 @_ZN3gmx5boost14stl_interfaces2v1neI13IListIteratorS4_EEDTcmclsr6v1_dtlE16derived_iteratorfp_Enteqfp_fp0_ET_T0_(ptr %0, i64 %1, ptr %2, i64 %3) #3 comdat {
  %5 = alloca %class.IListIterator, align 8
  %6 = alloca %class.IListIterator, align 8
  %7 = getelementptr inbounds nuw { ptr, i64 }, ptr %5, i32 0, i32 0
  store ptr %0, ptr %7, align 8
  %8 = getelementptr inbounds nuw { ptr, i64 }, ptr %5, i32 0, i32 1
  store i64 %1, ptr %8, align 8
  %9 = getelementptr inbounds nuw { ptr, i64 }, ptr %6, i32 0, i32 0
  store ptr %2, ptr %9, align 8
  %10 = getelementptr inbounds nuw { ptr, i64 }, ptr %6, i32 0, i32 1
  store i64 %3, ptr %10, align 8
  %11 = call noundef zeroext i1 @_ZNK13IListIteratoreqERKS_(ptr noundef nonnull align 8 dereferenceable(16) %5, ptr noundef nonnull align 8 dereferenceable(16) %6)
  %12 = xor i1 %11, true
  ret i1 %12
}

; Function Attrs: mustprogress nounwind uwtable
define linkonce_odr noundef nonnull align 8 dereferenceable(16) ptr @_ZN10IListRange3endEv(ptr noundef nonnull align 8 dereferenceable(32) %0) #0 comdat align 2 {
  %2 = alloca ptr, align 8
  store ptr %0, ptr %2, align 8, !tbaa !111
  %3 = load ptr, ptr %2, align 8
  %4 = getelementptr inbounds nuw %class.IListRange, ptr %3, i32 0, i32 1
  ret ptr %4
}

; Function Attrs: mustprogress nounwind uwtable
define linkonce_odr noundef nonnull align 8 dereferenceable(16) ptr @_ZN10IListRange5beginEv(ptr noundef nonnull align 8 dereferenceable(32) %0) #0 comdat align 2 {
  %2 = alloca ptr, align 8
  store ptr %0, ptr %2, align 8, !tbaa !111
  %3 = load ptr, ptr %2, align 8
  %4 = getelementptr inbounds nuw %class.IListRange, ptr %3, i32 0, i32 0
  ret ptr %4
}

; Function Attrs: mustprogress uwtable
define noundef i32 @_Z26gmx_mtop_interaction_countRK10gmx_mtop_tj(ptr noundef nonnull align 8 dereferenceable(768) %0, i32 noundef %1) #3 {
  %3 = alloca ptr, align 8
  %4 = alloca i32, align 4
  %5 = alloca i32, align 4
  %6 = alloca ptr, align 8
  %7 = alloca %class.IListRange, align 8
  %8 = alloca %class.IListIterator, align 8
  %9 = alloca %class.IListIterator, align 8
  %10 = alloca %class.IListIterator, align 8
  %11 = alloca %class.IListIterator, align 8
  %12 = alloca i32, align 4
  %13 = alloca %class.IListProxy, align 8
  %14 = alloca i32, align 4
  store ptr %0, ptr %3, align 8, !tbaa !4
  store i32 %1, ptr %4, align 4, !tbaa !9
  call void @llvm.lifetime.start.p0(i64 4, ptr %5) #16
  store i32 0, ptr %5, align 4, !tbaa !9
  call void @llvm.lifetime.start.p0(i64 8, ptr %6) #16
  call void @llvm.lifetime.start.p0(i64 32, ptr %7) #16
  %15 = load ptr, ptr %3, align 8, !tbaa !4
  call void @_ZN10IListRangeC1ERK10gmx_mtop_t(ptr noundef nonnull align 8 dereferenceable(32) %7, ptr noundef nonnull align 8 dereferenceable(768) %15)
  store ptr %7, ptr %6, align 8, !tbaa !111
  call void @llvm.lifetime.start.p0(i64 16, ptr %8) #16
  %16 = load ptr, ptr %6, align 8, !tbaa !111
  %17 = call noundef nonnull align 8 dereferenceable(16) ptr @_ZN10IListRange5beginEv(ptr noundef nonnull align 8 dereferenceable(32) %16)
  call void @llvm.memcpy.p0.p0.i64(ptr align 8 %8, ptr align 8 %17, i64 16, i1 false)
  call void @llvm.lifetime.start.p0(i64 16, ptr %9) #16
  %18 = load ptr, ptr %6, align 8, !tbaa !111
  %19 = call noundef nonnull align 8 dereferenceable(16) ptr @_ZN10IListRange3endEv(ptr noundef nonnull align 8 dereferenceable(32) %18)
  call void @llvm.memcpy.p0.p0.i64(ptr align 8 %9, ptr align 8 %19, i64 16, i1 false)
  br label %20

20:                                               ; preds = %67, %2
  call void @llvm.memcpy.p0.p0.i64(ptr align 8 %10, ptr align 8 %8, i64 16, i1 false)
  call void @llvm.memcpy.p0.p0.i64(ptr align 8 %11, ptr align 8 %9, i64 16, i1 false)
  %21 = getelementptr inbounds nuw { ptr, i64 }, ptr %10, i32 0, i32 0
  %22 = load ptr, ptr %21, align 8
  %23 = getelementptr inbounds nuw { ptr, i64 }, ptr %10, i32 0, i32 1
  %24 = load i64, ptr %23, align 8
  %25 = getelementptr inbounds nuw { ptr, i64 }, ptr %11, i32 0, i32 0
  %26 = load ptr, ptr %25, align 8
  %27 = getelementptr inbounds nuw { ptr, i64 }, ptr %11, i32 0, i32 1
  %28 = load i64, ptr %27, align 8
  %29 = call noundef zeroext i1 @_ZN3gmx5boost14stl_interfaces2v1neI13IListIteratorS4_EEDTcmclsr6v1_dtlE16derived_iteratorfp_Enteqfp_fp0_ET_T0_(ptr %22, i64 %24, ptr %26, i64 %28)
  br i1 %29, label %31, label %30

30:                                               ; preds = %20
  store i32 2, ptr %12, align 4
  call void @llvm.lifetime.end.p0(i64 16, ptr %9) #16
  call void @llvm.lifetime.end.p0(i64 16, ptr %8) #16
  call void @llvm.lifetime.end.p0(i64 32, ptr %7) #16
  call void @llvm.lifetime.end.p0(i64 8, ptr %6) #16
  br label %69

31:                                               ; preds = %20
  call void @llvm.lifetime.start.p0(i64 8, ptr %13) #16
  %32 = call ptr @_ZNK13IListIteratordeEv(ptr noundef nonnull align 8 dereferenceable(16) %8)
  %33 = getelementptr inbounds nuw %class.IListProxy, ptr %13, i32 0, i32 0
  store ptr %32, ptr %33, align 8
  call void @llvm.lifetime.start.p0(i64 4, ptr %14) #16
  store i32 0, ptr %14, align 4, !tbaa !9
  br label %34

34:                                               ; preds = %63, %31
  %35 = load i32, ptr %14, align 4, !tbaa !9
  %36 = icmp slt i32 %35, 95
  br i1 %36, label %38, label %37

37:                                               ; preds = %34
  store i32 4, ptr %12, align 4
  call void @llvm.lifetime.end.p0(i64 4, ptr %14) #16
  br label %66

38:                                               ; preds = %34
  %39 = load i32, ptr %14, align 4, !tbaa !9
  %40 = sext i32 %39 to i64
  %41 = getelementptr inbounds [95 x %struct.t_interaction_function], ptr @interaction_function, i64 0, i64 %40
  %42 = getelementptr inbounds nuw %struct.t_interaction_function, ptr %41, i32 0, i32 5
  %43 = load i32, ptr %42, align 4, !tbaa !129
  %44 = load i32, ptr %4, align 4, !tbaa !9
  %45 = and i32 %43, %44
  %46 = load i32, ptr %4, align 4, !tbaa !9
  %47 = icmp eq i32 %45, %46
  br i1 %47, label %48, label %62

48:                                               ; preds = %38
  %49 = call noundef i32 @_ZNK10IListProxy4nmolEv(ptr noundef nonnull align 8 dereferenceable(8) %13)
  %50 = call noundef nonnull align 8 dereferenceable(2280) ptr @_ZNK10IListProxy4listEv(ptr noundef nonnull align 8 dereferenceable(8) %13)
  %51 = load i32, ptr %14, align 4, !tbaa !9
  %52 = sext i32 %51 to i64
  %53 = call noundef nonnull align 8 dereferenceable(24) ptr @_ZNKSt5arrayI15InteractionListLm95EEixEm(ptr noundef nonnull align 8 dereferenceable(2280) %50, i64 noundef %52) #16
  %54 = call noundef i32 @_ZNK15InteractionList4sizeEv(ptr noundef nonnull align 8 dereferenceable(24) %53)
  %55 = mul nsw i32 %49, %54
  %56 = load i32, ptr %14, align 4, !tbaa !9
  %57 = call noundef i32 @_ZL4NRALi(i32 noundef %56)
  %58 = add nsw i32 1, %57
  %59 = sdiv i32 %55, %58
  %60 = load i32, ptr %5, align 4, !tbaa !9
  %61 = add nsw i32 %60, %59
  store i32 %61, ptr %5, align 4, !tbaa !9
  br label %62

62:                                               ; preds = %48, %38
  br label %63

63:                                               ; preds = %62
  %64 = load i32, ptr %14, align 4, !tbaa !9
  %65 = add nsw i32 %64, 1
  store i32 %65, ptr %14, align 4, !tbaa !9
  br label %34, !llvm.loop !130

66:                                               ; preds = %37
  call void @llvm.lifetime.end.p0(i64 8, ptr %13) #16
  br label %67

67:                                               ; preds = %66
  %68 = call noundef nonnull align 8 dereferenceable(16) ptr @_ZN13IListIteratorppEv(ptr noundef nonnull align 8 dereferenceable(16) %8)
  br label %20

69:                                               ; preds = %30
  %70 = load i32, ptr %5, align 4, !tbaa !9
  store i32 1, ptr %12, align 4
  call void @llvm.lifetime.end.p0(i64 4, ptr %5) #16
  ret i32 %70
}