; Function Attrs: mustprogress uwtable
define noundef i32 @_Z26gmx_mtop_interaction_countRK10gmx_mtop_tj(ptr noundef nonnull align 8 dereferenceable(768) %0, i32 noundef %1) local_unnamed_addr #3 {
  %3 = alloca %class.IListIterator, align 8
  %4 = alloca %class.IListIterator, align 8
  %5 = alloca %class.IListRange, align 8
  %6 = alloca %class.IListIterator, align 8
  %7 = alloca %class.IListProxy, align 8
  call void @llvm.lifetime.start.p0(i64 32, ptr nonnull %5) #20
  call void @_ZN10IListRangeC1ERK10gmx_mtop_t(ptr noundef nonnull align 8 dereferenceable(32) %5, ptr noundef nonnull align 8 dereferenceable(768) %0)
  call void @llvm.lifetime.start.p0(i64 16, ptr nonnull %6) #20
  call void @llvm.memcpy.p0.p0.i64(ptr noundef nonnull align 8 dereferenceable(16) %6, ptr noundef nonnull align 8 dereferenceable(16) %5, i64 16, i1 false)
  %8 = getelementptr inbounds nuw i8, ptr %5, i64 16
  %.sroa.07.0.copyload = load ptr, ptr %8, align 8
  %.sroa.4.0..sroa_idx = getelementptr inbounds nuw i8, ptr %5, i64 24
  %.sroa.4.0.copyload = load i64, ptr %.sroa.4.0..sroa_idx, align 8
  %.sroa.26.0..sroa_idx = getelementptr inbounds nuw i8, ptr %6, i64 8
  %9 = getelementptr inbounds nuw i8, ptr %3, i64 8
  %10 = getelementptr inbounds nuw i8, ptr %4, i64 8
  %.sroa.05.0.copyload17 = load ptr, ptr %6, align 8
  %.sroa.26.0.copyload18 = load i64, ptr %.sroa.26.0..sroa_idx, align 8
  call void @llvm.lifetime.start.p0(i64 16, ptr nonnull %3)
  call void @llvm.lifetime.start.p0(i64 16, ptr nonnull %4)
  store ptr %.sroa.05.0.copyload17, ptr %3, align 8
  store i64 %.sroa.26.0.copyload18, ptr %9, align 8
  store ptr %.sroa.07.0.copyload, ptr %4, align 8
  store i64 %.sroa.4.0.copyload, ptr %10, align 8
  %11 = call noundef zeroext i1 @_ZNK13IListIteratoreqERKS_(ptr noundef nonnull align 8 dereferenceable(16) %3, ptr noundef nonnull align 8 dereferenceable(16) %4)
  call void @llvm.lifetime.end.p0(i64 16, ptr nonnull %3)
  call void @llvm.lifetime.end.p0(i64 16, ptr nonnull %4)
  br i1 %11, label %._crit_edge, label %.lr.ph

._crit_edge:                                      ; preds = %12, %2
  %.014.lcssa = phi i32 [ 0, %2 ], [ %.2, %12 ]
  call void @llvm.lifetime.end.p0(i64 16, ptr nonnull %6) #20
  call void @llvm.lifetime.end.p0(i64 32, ptr nonnull %5) #20
  ret i32 %.014.lcssa

.lr.ph:                                           ; preds = %2, %12
  %.01419 = phi i32 [ %.2, %12 ], [ 0, %2 ]
  call void @llvm.lifetime.start.p0(i64 8, ptr nonnull %7) #20
  store ptr %6, ptr %7, align 8
  br label %15

12:                                               ; preds = %38
  call void @llvm.lifetime.end.p0(i64 8, ptr nonnull %7) #20
  %13 = call noundef nonnull align 8 dereferenceable(16) ptr @_ZN13IListIteratorppEv(ptr noundef nonnull align 8 dereferenceable(16) %6)
  %.sroa.05.0.copyload = load ptr, ptr %6, align 8
  %.sroa.26.0.copyload = load i64, ptr %.sroa.26.0..sroa_idx, align 8
  call void @llvm.lifetime.start.p0(i64 16, ptr nonnull %3)
  call void @llvm.lifetime.start.p0(i64 16, ptr nonnull %4)
  store ptr %.sroa.05.0.copyload, ptr %3, align 8
  store i64 %.sroa.26.0.copyload, ptr %9, align 8
  store ptr %.sroa.07.0.copyload, ptr %4, align 8
  store i64 %.sroa.4.0.copyload, ptr %10, align 8
  %14 = call noundef zeroext i1 @_ZNK13IListIteratoreqERKS_(ptr noundef nonnull align 8 dereferenceable(16) %3, ptr noundef nonnull align 8 dereferenceable(16) %4)
  call void @llvm.lifetime.end.p0(i64 16, ptr nonnull %3)
  call void @llvm.lifetime.end.p0(i64 16, ptr nonnull %4)
  br i1 %14, label %._crit_edge, label %.lr.ph

15:                                               ; preds = %.lr.ph, %38
  %indvars.iv = phi i64 [ 0, %.lr.ph ], [ %indvars.iv.next, %38 ]
  %.115 = phi i32 [ %.01419, %.lr.ph ], [ %.2, %38 ]
  %16 = getelementptr inbounds nuw [95 x %struct.t_interaction_function], ptr @interaction_function, i64 0, i64 %indvars.iv, i32 5
  %17 = load i32, ptr %16, align 4, !tbaa !96
  %18 = and i32 %17, %1
  %19 = icmp eq i32 %18, %1
  br i1 %19, label %20, label %38

20:                                               ; preds = %15
  %21 = call noundef i32 @_ZNK10IListProxy4nmolEv(ptr noundef nonnull align 8 dereferenceable(8) %7)
  %22 = call noundef nonnull align 8 dereferenceable(2280) ptr @_ZNK10IListProxy4listEv(ptr noundef nonnull align 8 dereferenceable(8) %7)
  %23 = getelementptr inbounds nuw [95 x %struct.InteractionList], ptr %22, i64 0, i64 %indvars.iv
  %24 = getelementptr inbounds nuw i8, ptr %23, i64 8
  %25 = load ptr, ptr %24, align 8, !tbaa !91
  %26 = load ptr, ptr %23, align 8, !tbaa !92
  %27 = ptrtoint ptr %25 to i64
  %28 = ptrtoint ptr %26 to i64
  %29 = sub i64 %27, %28
  %30 = lshr exact i64 %29, 2
  %31 = trunc i64 %30 to i32
  %32 = mul nsw i32 %21, %31
  %33 = getelementptr inbounds nuw [95 x %struct.t_interaction_function], ptr @interaction_function, i64 0, i64 %indvars.iv, i32 2
  %34 = load i32, ptr %33, align 16, !tbaa !93
  %35 = add nsw i32 %34, 1
  %36 = sdiv i32 %32, %35
  %37 = add nsw i32 %36, %.115
  br label %38

38:                                               ; preds = %15, %20
  %.2 = phi i32 [ %37, %20 ], [ %.115, %15 ]
  %indvars.iv.next = add nuw nsw i64 %indvars.iv, 1
  %exitcond.not = icmp eq i64 %indvars.iv.next, 95
  br i1 %exitcond.not, label %12, label %15, !llvm.loop !97
}